Certificate:
    Data:
        Version: 3 (0x2)
        Serial Number:
            49:ea:00:00:00:00:04:49:9c:57:9e:c5
        Signature Algorithm: sha256WithRSAEncryption
        Issuer: C=CN, ST=\xE4\xB8\x8A\xE6\xB5\xB7, L=\xE4\xB8\x8A\xE6\xB5\xB7\xE5\xB8\x82, O=\xE4\xB8\x8A\xE6\xB5\xB7\xE6\xA0\xBC\xE5\xB0\x94\xE8\xBD\xAF\xE4\xBB\xB6\xE8\x82\xA1\xE4\xBB\xBD\xE6\x9C\x89\xE9\x99\x90\xE5\x85\xAC\xE5\x8F\xB8, OU=\xE6\xA0\xBC\xE5\xB0\x94\xE8\xBD\xAF\xE4\xBB\xB6, CN=KoalCA
        Validity
            Not Before: Mar 10 16:00:00 2019 GMT
            Not After : Mar 11 15:59:59 2024 GMT
        Subject: C=CN, ST=\xE4\xB8\x8A\xE6\xB5\xB7, O=\xE6\xA0\xBC\xE5\xB0\x94\xE8\xBD\xAF\xE4\xBB\xB6, OU=xueyc@koal.com, CN=\xE8\x96\x9B\xE8\xBF\x90\xE6\x88\x90
        Subject Public Key Info:
            Public Key Algorithm: rsaEncryption
                RSA Public-Key: (2048 bit)
                Modulus:
                    00:b4:ea:21:2e:cf:47:93:08:4b:90:37:3f:8e:43:
                    90:81:dd:e1:81:c8:14:c7:7a:70:8a:6f:8c:b1:d5:
                    83:d3:87:5f:3e:be:fa:51:e3:7b:53:8e:89:b0:45:
                    ee:ca:8b:18:67:ac:13:d6:de:40:70:61:ca:a6:4d:
                    ac:36:c3:ce:88:49:13:74:b3:1a:89:5b:3b:c0:a3:
                    ad:d9:fa:61:af:f9:b4:e1:2e:b1:29:70:4a:9d:ae:
                    bf:6e:90:cf:1d:5b:be:ce:af:6c:11:8d:a7:76:59:
                    50:a7:c4:50:71:d6:bf:c8:ff:86:f9:1e:ca:c4:d3:
                    e3:86:8c:ab:a3:5a:b2:5f:ac:fa:4e:9a:4a:fa:fa:
                    e6:aa:e6:4c:1a:89:a3:a7:ed:13:2c:b6:c6:c8:14:
                    18:a9:a9:43:0c:ca:0c:a4:93:e5:a0:d2:86:85:17:
                    d3:0b:1a:40:16:a0:e4:a4:71:3c:37:bb:74:ea:07:
                    71:df:71:4c:11:b0:6f:83:bb:56:a4:63:81:09:4b:
                    a5:a1:69:fe:e5:3d:0a:d0:88:5b:7d:74:27:68:80:
                    16:fe:fd:10:fa:2e:4c:48:76:86:f5:59:7c:18:98:
                    dd:a8:50:4f:a3:42:67:bd:bf:e1:2c:cf:68:8a:ff:
                    11:99:bc:b2:f6:b4:64:92:54:24:1a:0e:fc:40:c2:
                    bc:2f
                Exponent: 65537 (0x10001)
        X509v3 extensions:
            X509v3 Basic Constraints: 
                CA:FALSE
            Netscape Comment: 
                OpenSSL Generated Certificate
            X509v3 Subject Key Identifier: 
                1A:64:77:CD:A2:1C:4B:B7:11:D6:5A:18:E3:B0:EC:53:0E:67:AB:3D
            X509v3 Authority Key Identifier: 
                8C:0A:45:37:58:26:8A:5E:22:F9:86:BF:52:F7:FF:72:AA:57:2E:6F
    Signature Algorithm: sha256WithRSAEncryption
    Signature Value:
        ab:28:a0:23:62:eb:f9:e6:25:8f:87:06:8e:08:a3:90:a7:be:
        e7:e3:24:83:4e:3e:d6:20:54:89:f1:6e:5c:a5:68:e1:6a:6a:
        fd:be:5b:50:c9:53:76:a8:8a:8e:21:e0:59:2f:66:1b:d4:0e:
        88:cc:9a:d7:d5:e3:38:da:52:d4:b1:da:db:b7:d5:f3:eb:bd:
        e3:f9:08:43:54:97:b8:05:75:64:40:45:5a:4b:c5:46:47:28:
        5f:0d:72:c3:42:e9:31:0e:2e:01:1d:5c:b6:cf:06:9a:f4:73:
        55:7e:8c:f9:61:64:be:b0:d3:88:40:85:db:b7:4a:97:b5:2d:
        74:63:df:6e:5b:ab:39:e6:8e:fa:a5:57:ca:de:d6:b9:62:7d:
        ca:82:cb:22:63:f2:94:bd:56:8e:a1:32:29:79:d9:fb:51:fa:
        80:f4:36:c9:10:65:fd:70:92:26:de:db:17:24:ef:b3:aa:ef:
        78:ba:76:4f:9e:3e:82:b2:5d:bf:83:73:87:ca:8b:e0:09:e3:
        5e:fd:c4:c1:31:50:cd:21:df:24:1d:88:76:09:69:48:d1:2e:
        e7:4e:24:0a:88:8d:58:b1:11:77:e6:af:4d:df:c9:b9:92:1a:
        47:10:6b:4a:f9:2e:85:b4:2f:fa:1f:41:f9:85:5c:b5:4c:57:
        02:49:77:78:9d:b3:47:22:e4:e3:15:dc:4c:b5:eb:00:d7:43:
        06:5a:63:82:08:9d:a9:e2:4a:ca:cb:bd:10:fa:a0:c5:a6:fe:
        de:26:7f:d7:d7:d4:94:79:bc:2e:90:a5:a6:ef:97:b5:67:d7:
        54:76:45:24:ff:a2:ab:b8:41:8a:c1:f0:26:93:8d:1a:22:4d:
        8b:b4:d0:88:70:69:18:3a:1e:f1:62:1f:0f:89:fe:6b:cf:1f:
        02:da:0e:97:88:51:bd:44:de:f5:75:be:0b:cc:49:f3:db:6d:
        db:54:a2:e1:c2:9f:3d:aa:75:e1:4b:b7:3a:c8:89:7f:ce:53:
        d8:e2:45:4e:cc:f4:94:c6:e5:08:09:b5:96:d5:2e:92:a9:ef:
        fa:32:69:c2:db:e3:a9:11:3d:dd:b6:a3:20:f1:97:6b:90:ee:
        06:70:21:c0:ec:53:57:88:30:3a:a0:20:d3:c3:bb:22:99:cd:
        20:8f:5d:b8:8a:26:e2:6a:87:bb:81:85:2f:0c:3c:a6:a9:08:
        ef:30:a3:03:b4:6d:46:b8:bb:db:de:05:d6:3b:33:a6:49:d8:
        d4:ab:cc:12:5f:1d:67:1f:f8:21:05:3a:7a:8b:ca:35:eb:e8:
        e7:8a:17:f9:fa:92:52:03:70:94:02:6f:71:21:d8:26:80:0d:
        0a:e8:a3:0f:52:6f:e5:4d
-----BEGIN CERTIFICATE-----
MIIE7TCCAtWgAwIBAgIMSeoAAAAABEmcV57FMA0GCSqGSIb3DQEBCwUAMIGJMQsw
CQYDVQQGEwJDTjEPMA0GA1UECAwG5LiK5rW3MRIwEAYDVQQHDAnkuIrmtbfluIIx
LTArBgNVBAoMJOS4iua1t+agvOWwlOi9r+S7tuiCoeS7veaciemZkOWFrOWPuDEV
MBMGA1UECwwM5qC85bCU6L2v5Lu2MQ8wDQYDVQQDDAZLb2FsQ0EwHhcNMTkwMzEw
MTYwMDAwWhcNMjQwMzExMTU1OTU5WjBiMQswCQYDVQQGEwJDTjEPMA0GA1UECAwG
5LiK5rW3MRUwEwYDVQQKDAzmoLzlsJTova/ku7YxFzAVBgNVBAsMDnh1ZXljQGtv
YWwuY29tMRIwEAYDVQQDDAnolpvov5DmiJAwggEiMA0GCSqGSIb3DQEBAQUAA4IB
DwAwggEKAoIBAQC06iEuz0eTCEuQNz+OQ5CB3eGByBTHenCKb4yx1YPTh18+vvpR
43tTjomwRe7KixhnrBPW3kBwYcqmTaw2w86ISRN0sxqJWzvAo63Z+mGv+bThLrEp
cEqdrr9ukM8dW77Or2wRjad2WVCnxFBx1r/I/4b5HsrE0+OGjKujWrJfrPpOmkr6
+uaq5kwaiaOn7RMstsbIFBipqUMMygykk+Wg0oaFF9MLGkAWoOSkcTw3u3TqB3Hf
cUwRsG+Du1akY4EJS6Whaf7lPQrQiFt9dCdogBb+/RD6LkxIdob1WXwYmN2oUE+j
Qme9v+Esz2iK/xGZvLL2tGSSVCQaDvxAwrwvAgMBAAGjezB5MAkGA1UdEwQCMAAw
LAYJYIZIAYb4QgENBB8WHU9wZW5TU0wgR2VuZXJhdGVkIENlcnRpZmljYXRlMB0G
A1UdDgQWBBQaZHfNohxLtxHWWhjjsOxTDmerPTAfBgNVHSMEGDAWgBSMCkU3WCaK
XiL5hr9S9/9yqlcubzANBgkqhkiG9w0BAQsFAAOCAgEAqyigI2Lr+eYlj4cGjgij
kKe+5+Mkg04+1iBUifFuXKVo4Wpq/b5bUMlTdqiKjiHgWS9mG9QOiMya19XjONpS
1LHa27fV8+u94/kIQ1SXuAV1ZEBFWkvFRkcoXw1yw0LpMQ4uAR1cts8GmvRzVX6M
+WFkvrDTiECF27dKl7UtdGPfblurOeaO+qVXyt7WuWJ9yoLLImPylL1WjqEyKXnZ
+1H6gPQ2yRBl/XCSJt7bFyTvs6rveLp2T54+grJdv4Nzh8qL4AnjXv3EwTFQzSHf
JB2IdglpSNEu504kCoiNWLERd+avTd/JuZIaRxBrSvkuhbQv+h9B+YVctUxXAkl3
eJ2zRyLk4xXcTLXrANdDBlpjggidqeJKysu9EPqgxab+3iZ/19fUlHm8LpClpu+X
tWfXVHZFJP+iq7hBisHwJpONGiJNi7TQiHBpGDoe8WIfD4n+a88fAtoOl4hRvUTe
9XW+C8xJ89tt21Si4cKfPap14Uu3OsiJf85T2OJFTsz0lMblCAm1ltUukqnv+jJp
wtvjqRE93bajIPGXa5DuBnAhwOxTV4gwOqAg08O7IpnNII9duIom4mqHu4GFLww8
pqkI7zCjA7RtRri7294F1jszpknY1KvMEl8dZx/4IQU6eovKNevo54oX+fqSUgNw
lAJvcSHYJoANCuijD1Jv5U0=
-----END CERTIFICATE-----
