Certificate:
    Data:
        Version: 3 (0x2)
        Serial Number:
            49:ea:00:00:00:00:04:49:9c:57:9e:c5
        Signature Algorithm: sha256WithRSAEncryption
        Issuer: C=CN, ST=\xE4\xB8\x8A\xE6\xB5\xB7, L=\xE4\xB8\x8A\xE6\xB5\xB7\xE5\xB8\x82, O=\xE4\xB8\x8A\xE6\xB5\xB7\xE6\xA0\xBC\xE5\xB0\x94\xE8\xBD\xAF\xE4\xBB\xB6\xE8\x82\xA1\xE4\xBB\xBD\xE6\x9C\x89\xE9\x99\x90\xE5\x85\xAC\xE5\x8F\xB8, OU=\xE6\xA0\xBC\xE5\xB0\x94\xE8\xBD\xAF\xE4\xBB\xB6, CN=KoalCA
        Validity
            Not Before: Mar 11 00:00:00 2019 GMT
            Not After : Mar 11 00:00:00 2024 GMT
        Subject: C=CN, ST=\xE4\xB8\x8A\xE6\xB5\xB7, O=\xE6\xA0\xBC\xE5\xB0\x94\xE8\xBD\xAF\xE4\xBB\xB6, OU=xueyc@koal.com, CN=\xE8\x96\x9B\xE8\xBF\x90\xE6\x88\x90
        Subject Public Key Info:
            Public Key Algorithm: rsaEncryption
                RSA Public-Key: (2048 bit)
                Modulus:
                    00:b4:ea:21:2e:cf:47:93:08:4b:90:37:3f:8e:43:
                    90:81:dd:e1:81:c8:14:c7:7a:70:8a:6f:8c:b1:d5:
                    83:d3:87:5f:3e:be:fa:51:e3:7b:53:8e:89:b0:45:
                    ee:ca:8b:18:67:ac:13:d6:de:40:70:61:ca:a6:4d:
                    ac:36:c3:ce:88:49:13:74:b3:1a:89:5b:3b:c0:a3:
                    ad:d9:fa:61:af:f9:b4:e1:2e:b1:29:70:4a:9d:ae:
                    bf:6e:90:cf:1d:5b:be:ce:af:6c:11:8d:a7:76:59:
                    50:a7:c4:50:71:d6:bf:c8:ff:86:f9:1e:ca:c4:d3:
                    e3:86:8c:ab:a3:5a:b2:5f:ac:fa:4e:9a:4a:fa:fa:
                    e6:aa:e6:4c:1a:89:a3:a7:ed:13:2c:b6:c6:c8:14:
                    18:a9:a9:43:0c:ca:0c:a4:93:e5:a0:d2:86:85:17:
                    d3:0b:1a:40:16:a0:e4:a4:71:3c:37:bb:74:ea:07:
                    71:df:71:4c:11:b0:6f:83:bb:56:a4:63:81:09:4b:
                    a5:a1:69:fe:e5:3d:0a:d0:88:5b:7d:74:27:68:80:
                    16:fe:fd:10:fa:2e:4c:48:76:86:f5:59:7c:18:98:
                    dd:a8:50:4f:a3:42:67:bd:bf:e1:2c:cf:68:8a:ff:
                    11:99:bc:b2:f6:b4:64:92:54:24:1a:0e:fc:40:c2:
                    bc:2f
                Exponent: 65537 (0x10001)
        X509v3 extensions:
            X509v3 Basic Constraints: 
                CA:FALSE
            Netscape Comment: 
                OpenSSL Generated Certificate
            X509v3 Subject Key Identifier: 
                1A:64:77:CD:A2:1C:4B:B7:11:D6:5A:18:E3:B0:EC:53:0E:67:AB:3D
            X509v3 Authority Key Identifier: 
                8C:0A:45:37:58:26:8A:5E:22:F9:86:BF:52:F7:FF:72:AA:57:2E:6F
    Signature Algorithm: sha256WithRSAEncryption
    Signature Value:
        30:cc:23:82:b4:2a:f2:7b:41:2b:05:46:8e:61:a8:aa:fd:f6:
        5c:b3:ec:e2:96:7e:1b:08:39:f5:7d:a8:11:2f:69:04:79:f7:
        1b:13:46:0f:f9:15:80:45:c5:31:e5:e1:cf:f2:a0:2c:7d:eb:
        f3:40:e3:44:a9:68:09:bb:a1:9c:db:8e:f2:fd:c9:8e:67:53:
        1a:a9:58:1d:5c:6a:8e:66:61:42:13:e6:50:f1:ef:c3:5b:c5:
        ff:a2:1b:30:cb:c4:11:c1:74:38:6c:64:83:9d:80:14:4e:d2:
        93:56:53:3e:db:40:fc:35:b7:89:80:a1:34:bd:3f:66:15:09:
        4c:d9:57:f2:ff:e0:26:2f:49:9a:0a:f1:0d:ea:b6:99:64:47:
        ef:c1:54:18:c0:db:77:b7:fa:43:8e:a2:10:15:41:84:10:6c:
        d9:9e:a3:f2:96:1e:7f:65:2a:ae:5d:cd:31:69:a9:f0:66:1c:
        dc:73:41:5c:96:aa:66:b6:f0:43:54:8d:c3:24:51:b5:70:07:
        75:13:d1:f2:1f:93:2a:a1:6c:65:d8:1d:19:42:5f:b4:cd:ed:
        e6:b7:d0:80:46:a1:71:5c:90:50:a0:20:99:5c:b6:e9:ac:72:
        bf:9b:b1:f6:ee:2c:a1:6a:55:64:6f:f4:1c:3e:9e:08:20:37:
        11:46:5c:42:be:c6:8f:db:1a:41:a3:f4:99:09:00:1e:09:73:
        c3:24:64:32:87:2c:e9:71:f1:54:29:4b:9e:16:9a:77:a2:f9:
        62:be:cc:71:b2:f7:48:42:6d:0f:b3:39:5d:be:44:1e:bd:04:
        3d:00:47:10:bc:b8:c4:96:e6:9f:a6:29:04:5b:d9:bb:4d:19:
        28:fb:0a:be:d3:86:83:76:8d:5c:21:b3:ba:4f:e9:e2:74:39:
        b2:17:fd:2f:da:91:6d:95:b3:1f:0c:16:95:63:78:a5:65:80:
        2c:18:43:9a:1b:f7:ba:c9:30:16:27:5e:7b:f5:50:50:e1:d3:
        6b:6f:88:4c:02:25:cf:98:d0:b2:96:c4:9c:22:41:5e:40:33:
        a5:f8:f0:1f:fe:05:4f:be:9a:d9:61:14:dd:7e:99:a7:c2:7f:
        74:a1:a9:16:31:9c:d4:e4:e3:35:a1:50:1f:a0:91:4a:ef:96:
        f5:51:8d:25:96:12:24:64:5b:cb:c5:2c:49:7b:b6:f9:79:22:
        e9:dc:7c:1f:90:32:fd:6c:0d:de:3f:56:06:41:9f:d0:fe:03:
        58:4e:d3:a9:69:72:10:10:94:d2:f5:83:75:5b:6b:d2:04:84:
        cb:3e:70:b4:24:2d:bb:87:d4:73:c0:58:5a:eb:3c:e5:04:66:
        b3:fe:c7:e2:3b:c4:91:65
-----BEGIN CERTIFICATE-----
MIIE7TCCAtWgAwIBAgIMSeoAAAAABEmcV57FMA0GCSqGSIb3DQEBCwUAMIGJMQsw
CQYDVQQGEwJDTjEPMA0GA1UECAwG5LiK5rW3MRIwEAYDVQQHDAnkuIrmtbfluIIx
LTArBgNVBAoMJOS4iua1t+agvOWwlOi9r+S7tuiCoeS7veaciemZkOWFrOWPuDEV
MBMGA1UECwwM5qC85bCU6L2v5Lu2MQ8wDQYDVQQDDAZLb2FsQ0EwHhcNMTkwMzEx
MDAwMDAwWhcNMjQwMzExMDAwMDAwWjBiMQswCQYDVQQGEwJDTjEPMA0GA1UECAwG
5LiK5rW3MRUwEwYDVQQKDAzmoLzlsJTova/ku7YxFzAVBgNVBAsMDnh1ZXljQGtv
YWwuY29tMRIwEAYDVQQDDAnolpvov5DmiJAwggEiMA0GCSqGSIb3DQEBAQUAA4IB
DwAwggEKAoIBAQC06iEuz0eTCEuQNz+OQ5CB3eGByBTHenCKb4yx1YPTh18+vvpR
43tTjomwRe7KixhnrBPW3kBwYcqmTaw2w86ISRN0sxqJWzvAo63Z+mGv+bThLrEp
cEqdrr9ukM8dW77Or2wRjad2WVCnxFBx1r/I/4b5HsrE0+OGjKujWrJfrPpOmkr6
+uaq5kwaiaOn7RMstsbIFBipqUMMygykk+Wg0oaFF9MLGkAWoOSkcTw3u3TqB3Hf
cUwRsG+Du1akY4EJS6Whaf7lPQrQiFt9dCdogBb+/RD6LkxIdob1WXwYmN2oUE+j
Qme9v+Esz2iK/xGZvLL2tGSSVCQaDvxAwrwvAgMBAAGjezB5MAkGA1UdEwQCMAAw
LAYJYIZIAYb4QgENBB8WHU9wZW5TU0wgR2VuZXJhdGVkIENlcnRpZmljYXRlMB0G
A1UdDgQWBBQaZHfNohxLtxHWWhjjsOxTDmerPTAfBgNVHSMEGDAWgBSMCkU3WCaK
XiL5hr9S9/9yqlcubzANBgkqhkiG9w0BAQsFAAOCAgEAMMwjgrQq8ntBKwVGjmGo
qv32XLPs4pZ+Gwg59X2oES9pBHn3GxNGD/kVgEXFMeXhz/KgLH3r80DjRKloCbuh
nNuO8v3JjmdTGqlYHVxqjmZhQhPmUPHvw1vF/6IbMMvEEcF0OGxkg52AFE7Sk1ZT
PttA/DW3iYChNL0/ZhUJTNlX8v/gJi9JmgrxDeq2mWRH78FUGMDbd7f6Q46iEBVB
hBBs2Z6j8pYef2Uqrl3NMWmp8GYc3HNBXJaqZrbwQ1SNwyRRtXAHdRPR8h+TKqFs
ZdgdGUJftM3t5rfQgEahcVyQUKAgmVy26axyv5ux9u4soWpVZG/0HD6eCCA3EUZc
Qr7Gj9saQaP0mQkAHglzwyRkMocs6XHxVClLnhaad6L5Yr7McbL3SEJtD7M5Xb5E
Hr0EPQBHELy4xJbmn6YpBFvZu00ZKPsKvtOGg3aNXCGzuk/p4nQ5shf9L9qRbZWz
HwwWlWN4pWWALBhDmhv3uskwFidee/VQUOHTa2+ITAIlz5jQspbEnCJBXkAzpfjw
H/4FT76a2WEU3X6Zp8J/dKGpFjGc1OTjNaFQH6CRSu+W9VGNJZYSJGRby8UsSXu2
+Xki6dx8H5Ay/WwN3j9WBkGf0P4DWE7TqWlyEBCU0vWDdVtr0gSEyz5wtCQtu4fU
c8BYWus85QRms/7H4jvEkWU=
-----END CERTIFICATE-----
