Certificate:
    Data:
        Version: 3 (0x2)
        Serial Number:
            49:ea:00:00:00:00:04:49:9c:57:9e:c6
        Signature Algorithm: sha256WithRSAEncryption
        Issuer: C=CN, ST=\xE4\xB8\x8A\xE6\xB5\xB7, L=\xE4\xB8\x8A\xE6\xB5\xB7\xE5\xB8\x82, O=\xE4\xB8\x8A\xE6\xB5\xB7\xE6\xA0\xBC\xE5\xB0\x94\xE8\xBD\xAF\xE4\xBB\xB6\xE8\x82\xA1\xE4\xBB\xBD\xE6\x9C\x89\xE9\x99\x90\xE5\x85\xAC\xE5\x8F\xB8, OU=\xE6\xA0\xBC\xE5\xB0\x94\xE8\xBD\xAF\xE4\xBB\xB6, CN=KoalCA
        Validity
            Not Before: Mar 10 16:00:00 2019 GMT
            Not After : Mar 11 15:59:59 2024 GMT
        Subject: C=CN, ST=\xE4\xB8\x8A\xE6\xB5\xB7, O=\xE6\xA0\xBC\xE5\xB0\x94\xE8\xBD\xAF\xE4\xBB\xB6, OU=xueyc@koal.com, CN=\xE8\x96\x9B\xE8\xBF\x90\xE6\x88\x90
        Subject Public Key Info:
            Public Key Algorithm: rsaEncryption
                RSA Public-Key: (2048 bit)
                Modulus:
                    00:b4:ea:21:2e:cf:47:93:08:4b:90:37:3f:8e:43:
                    90:81:dd:e1:81:c8:14:c7:7a:70:8a:6f:8c:b1:d5:
                    83:d3:87:5f:3e:be:fa:51:e3:7b:53:8e:89:b0:45:
                    ee:ca:8b:18:67:ac:13:d6:de:40:70:61:ca:a6:4d:
                    ac:36:c3:ce:88:49:13:74:b3:1a:89:5b:3b:c0:a3:
                    ad:d9:fa:61:af:f9:b4:e1:2e:b1:29:70:4a:9d:ae:
                    bf:6e:90:cf:1d:5b:be:ce:af:6c:11:8d:a7:76:59:
                    50:a7:c4:50:71:d6:bf:c8:ff:86:f9:1e:ca:c4:d3:
                    e3:86:8c:ab:a3:5a:b2:5f:ac:fa:4e:9a:4a:fa:fa:
                    e6:aa:e6:4c:1a:89:a3:a7:ed:13:2c:b6:c6:c8:14:
                    18:a9:a9:43:0c:ca:0c:a4:93:e5:a0:d2:86:85:17:
                    d3:0b:1a:40:16:a0:e4:a4:71:3c:37:bb:74:ea:07:
                    71:df:71:4c:11:b0:6f:83:bb:56:a4:63:81:09:4b:
                    a5:a1:69:fe:e5:3d:0a:d0:88:5b:7d:74:27:68:80:
                    16:fe:fd:10:fa:2e:4c:48:76:86:f5:59:7c:18:98:
                    dd:a8:50:4f:a3:42:67:bd:bf:e1:2c:cf:68:8a:ff:
                    11:99:bc:b2:f6:b4:64:92:54:24:1a:0e:fc:40:c2:
                    bc:2f
                Exponent: 65537 (0x10001)
        X509v3 extensions:
            X509v3 Basic Constraints: 
                CA:FALSE
            Netscape Comment: 
                OpenSSL Generated Certificate
            X509v3 Subject Key Identifier: 
                1A:64:77:CD:A2:1C:4B:B7:11:D6:5A:18:E3:B0:EC:53:0E:67:AB:3D
            X509v3 Authority Key Identifier: 
                8C:0A:45:37:58:26:8A:5E:22:F9:86:BF:52:F7:FF:72:AA:57:2E:6F
    Signature Algorithm: sha256WithRSAEncryption
    Signature Value:
        4c:6c:9d:62:69:08:fa:82:28:14:a5:8d:6a:91:55:1c:34:13:
        f4:0b:24:9a:b8:be:6d:f7:1d:97:85:ec:f7:7c:c7:79:15:ba:
        a0:e0:b1:5d:ac:99:a7:74:99:b7:38:56:48:e5:d9:98:4b:e5:
        23:c0:ef:08:8b:81:94:45:df:11:bc:99:2f:91:73:8a:47:84:
        22:02:1e:10:ed:44:35:d8:8d:54:93:88:21:bc:fd:56:68:6b:
        21:6f:d2:86:c7:8d:8c:ad:b7:4e:cf:3e:fe:ad:1e:62:12:71:
        47:93:9e:db:a0:cc:b6:ed:c4:24:c7:0c:e0:33:ee:73:df:73:
        c1:01:f8:96:fb:59:9d:6f:1b:d9:02:9a:82:4f:51:c1:99:2a:
        1a:d6:3d:73:3f:e9:fd:5e:25:65:42:aa:88:aa:40:bd:28:60:
        94:44:84:9c:30:97:58:8a:90:24:5c:c0:6d:7c:2f:dc:36:ca:
        20:25:ec:71:5f:2a:00:c2:cc:4e:bd:84:8a:94:ca:e1:ee:37:
        84:ee:a6:44:79:e9:fa:ff:db:57:eb:ce:42:e5:35:3e:dc:d6:
        6f:97:62:47:c5:e8:83:e6:13:57:15:c8:a5:15:37:c3:ef:13:
        24:60:c3:72:df:ce:7c:1e:d6:6f:75:04:09:e8:0d:9b:10:29:
        63:e6:07:19:47:0d:8b:ed:8f:62:26:36:0b:2e:98:46:82:48:
        8c:18:cf:be:66:8a:f2:55:e3:8d:69:53:98:9c:39:be:76:af:
        82:45:85:cf:da:b5:d4:c5:d8:a8:0b:ec:69:02:40:24:56:a2:
        3b:38:13:dd:82:54:17:81:a5:1b:16:9e:aa:2d:c9:99:91:f9:
        25:2c:c1:86:5a:76:80:e7:cc:7a:32:05:b9:83:32:76:68:f3:
        05:a1:07:94:6a:e5:4a:ad:c4:56:df:c1:0a:aa:3a:95:8e:12:
        79:92:37:e5:4f:c2:7b:4f:47:6b:67:7f:55:9e:a7:9d:3d:18:
        62:ec:af:dd:9d:f8:29:e1:46:2e:09:66:cb:94:9d:58:08:71:
        7d:c5:b9:89:02:40:e6:0a:80:2c:a1:b4:4d:d6:b6:1a:12:57:
        ed:7b:00:83:3e:b7:a1:d9:82:c6:ec:58:62:20:94:80:20:e4:
        8f:30:ee:c3:d9:7e:a5:5b:ba:99:93:6a:f3:56:5d:51:c1:8c:
        c3:25:6f:34:81:3b:a5:13:94:ba:29:b8:c3:26:ca:a8:2d:5d:
        a9:c0:47:b4:47:06:24:e5:e5:af:f9:b3:2d:c4:f6:27:e7:94:
        a3:2c:23:3f:15:18:82:09:55:d5:83:41:28:03:76:f3:e7:a1:
        31:75:fa:e0:21:23:e9:7a
-----BEGIN CERTIFICATE-----
MIIE7TCCAtWgAwIBAgIMSeoAAAAABEmcV57GMA0GCSqGSIb3DQEBCwUAMIGJMQsw
CQYDVQQGEwJDTjEPMA0GA1UECAwG5LiK5rW3MRIwEAYDVQQHDAnkuIrmtbfluIIx
LTArBgNVBAoMJOS4iua1t+agvOWwlOi9r+S7tuiCoeS7veaciemZkOWFrOWPuDEV
MBMGA1UECwwM5qC85bCU6L2v5Lu2MQ8wDQYDVQQDDAZLb2FsQ0EwHhcNMTkwMzEw
MTYwMDAwWhcNMjQwMzExMTU1OTU5WjBiMQswCQYDVQQGEwJDTjEPMA0GA1UECAwG
5LiK5rW3MRUwEwYDVQQKDAzmoLzlsJTova/ku7YxFzAVBgNVBAsMDnh1ZXljQGtv
YWwuY29tMRIwEAYDVQQDDAnolpvov5DmiJAwggEiMA0GCSqGSIb3DQEBAQUAA4IB
DwAwggEKAoIBAQC06iEuz0eTCEuQNz+OQ5CB3eGByBTHenCKb4yx1YPTh18+vvpR
43tTjomwRe7KixhnrBPW3kBwYcqmTaw2w86ISRN0sxqJWzvAo63Z+mGv+bThLrEp
cEqdrr9ukM8dW77Or2wRjad2WVCnxFBx1r/I/4b5HsrE0+OGjKujWrJfrPpOmkr6
+uaq5kwaiaOn7RMstsbIFBipqUMMygykk+Wg0oaFF9MLGkAWoOSkcTw3u3TqB3Hf
cUwRsG+Du1akY4EJS6Whaf7lPQrQiFt9dCdogBb+/RD6LkxIdob1WXwYmN2oUE+j
Qme9v+Esz2iK/xGZvLL2tGSSVCQaDvxAwrwvAgMBAAGjezB5MAkGA1UdEwQCMAAw
LAYJYIZIAYb4QgENBB8WHU9wZW5TU0wgR2VuZXJhdGVkIENlcnRpZmljYXRlMB0G
A1UdDgQWBBQaZHfNohxLtxHWWhjjsOxTDmerPTAfBgNVHSMEGDAWgBSMCkU3WCaK
XiL5hr9S9/9yqlcubzANBgkqhkiG9w0BAQsFAAOCAgEATGydYmkI+oIoFKWNapFV
HDQT9Askmri+bfcdl4Xs93zHeRW6oOCxXayZp3SZtzhWSOXZmEvlI8DvCIuBlEXf
EbyZL5FzikeEIgIeEO1ENdiNVJOIIbz9VmhrIW/ShseNjK23Ts8+/q0eYhJxR5Oe
26DMtu3EJMcM4DPuc99zwQH4lvtZnW8b2QKagk9RwZkqGtY9cz/p/V4lZUKqiKpA
vShglESEnDCXWIqQJFzAbXwv3DbKICXscV8qAMLMTr2EipTK4e43hO6mRHnp+v/b
V+vOQuU1PtzWb5diR8Xog+YTVxXIpRU3w+8TJGDDct/OfB7Wb3UECegNmxApY+YH
GUcNi+2PYiY2Cy6YRoJIjBjPvmaK8lXjjWlTmJw5vnavgkWFz9q11MXYqAvsaQJA
JFaiOzgT3YJUF4GlGxaeqi3JmZH5JSzBhlp2gOfMejIFuYMydmjzBaEHlGrlSq3E
Vt/BCqo6lY4SeZI35U/Ce09Ha2d/VZ6nnT0YYuyv3Z34KeFGLglmy5SdWAhxfcW5
iQJA5gqALKG0Tda2GhJX7XsAgz63odmCxuxYYiCUgCDkjzDuw9l+pVu6mZNq81Zd
UcGMwyVvNIE7pROUuim4wybKqC1dqcBHtEcGJOXlr/mzLcT2J+eUoywjPxUYgglV
1YNBKAN28+ehMXX64CEj6Xo=
-----END CERTIFICATE-----
